	.file	"crc.c"
	.file 1 "crc.c"
	.text
.Ltext0:
	.file 2 "/usr/local/arm/3.3.2/lib/gcc-lib/arm-linux/3.3.2/include/stddef.h"
	.file 3 "/usr/local/arm/3.3.2/include/bits/types.h"
	.file 4 "/usr/local/arm/3.3.2/include/stdio.h"
	.file 5 "/usr/local/arm/3.3.2/include/wchar.h"
	.file 6 "/usr/local/arm/3.3.2/include/_G_config.h"
	.file 7 "/usr/local/arm/3.3.2/include/gconv.h"
	.file 8 "/usr/local/arm/3.3.2/lib/gcc-lib/arm-linux/3.3.2/include/stdarg.h"
	.file 9 "/usr/local/arm/3.3.2/include/libio.h"
	.section	.rodata
	.align	2
.LC0:
	.ascii	"asdffeagewaHAFEFaeDsFEawFdsFaefaeerdjgpim23\000"
	.text
	.align	2
	.global	main
	.type	main, %function
main:
.LFB3:
	.loc 1 5 0
	@ args = 0, pretend = 0, frame = 56
	@ frame_needed = 1, uses_anonymous_args = 0
	mov	ip, sp
.LCFI0:
	stmfd	sp!, {fp, ip, lr, pc}
.LCFI1:
	sub	fp, ip, #4
.LCFI2:
	sub	sp, sp, #60
.LCFI3:
	str	r0, [fp, #-16]
	str	r1, [fp, #-20]
	.loc 1 6 0
.LBB2:
	ldr	r3, .L3
	sub	lr, fp, #64
	mov	ip, r3
	ldmia	ip!, {r0, r1, r2, r3}
	stmia	lr!, {r0, r1, r2, r3}
	ldmia	ip!, {r0, r1, r2, r3}
	stmia	lr!, {r0, r1, r2, r3}
	ldmia	ip, {r0, r1, r2}
	stmia	lr, {r0, r1, r2}
	.loc 1 9 0
	sub	r2, fp, #64
	mov	r3, #1
	str	r3, [sp, #0]
	mov	r0, #0
	mov	r1, r2
	mov	r2, #40
	mov	r3, #0
	bl	icrc
	mov	r3, r0	@ movhi
	strh	r3, [fp, #-66]	@ movhi 
	.loc 1 11 0
	ldrh	r2, [fp, #-68]
	ldr	r3, .L3+4
	cmp	r2, r3
	bne	.L2
	.loc 1 13 0
	mov	r3, #0
	strh	r3, [fp, #-66]	@ movhi 
.L2:
	.loc 1 15 0
	mov	r3, #0
	.loc 1 16 0
.LBE2:
	mov	r0, r3
	ldmea	fp, {fp, sp, pc}
.L4:
	.align	2
.L3:
	.word	.LC0
	.word	387
.LFE3:
	.size	main, .-main
	.align	2
	.global	icrc1
	.type	icrc1, %function
icrc1:
.LFB5:
	.loc 1 19 0
	@ args = 0, pretend = 0, frame = 16
	@ frame_needed = 1, uses_anonymous_args = 0
	mov	ip, sp
.LCFI4:
	stmfd	sp!, {fp, ip, lr, pc}
.LCFI5:
	sub	fp, ip, #4
.LCFI6:
	sub	sp, sp, #16
.LCFI7:
	mov	r3, r0
	mov	r2, r1
	strh	r3, [fp, #-14]	@ movhi 
	mov	r3, r2
	strb	r3, [fp, #-15]
	.loc 1 21 0
.LBB3:
	ldrb	r3, [fp, #-15]	@ zero_extendqisi2
	mov	r3, r3, asl #8
	ldrh	r2, [fp, #-14]	@ movhi
	eor	r3, r2, r3
	strh	r3, [fp, #-26]	@ movhi 
	.loc 1 23 0
	mov	r3, #0
	str	r3, [fp, #-20]
.L6:
	ldr	r3, [fp, #-20]
	cmp	r3, #7
	ble	.L9
	b	.L7
.L9:
	.loc 1 25 0
	ldrh	r3, [fp, #-26]
	and	r3, r3, #32768
	str	r3, [fp, #-24]
	.loc 1 27 0
	ldr	r3, [fp, #-24]
	cmp	r3, #0
	beq	.L10
	.loc 1 29 0
	ldrh	r3, [fp, #-26]	@ movhi
	mov	r3, r3, asl #1
	mov	r2, r3	@ movhi
	strh	r2, [fp, #-26]	@ movhi 
	ldr	r3, .L12
	eor	r3, r2, r3
	strh	r3, [fp, #-26]	@ movhi 
	b	.L8
.L10:
	.loc 1 33 0
	ldrh	r3, [fp, #-26]	@ movhi
	mov	r3, r3, asl #1
	strh	r3, [fp, #-26]	@ movhi 
	.loc 1 23 0
.L8:
	ldr	r3, [fp, #-20]
	add	r3, r3, #1
	str	r3, [fp, #-20]
	b	.L6
.L7:
	.loc 1 36 0
	ldrh	r3, [fp, #-26]
	.loc 1 37 0
.LBE3:
	mov	r0, r3
	ldmea	fp, {fp, sp, pc}
.L13:
	.align	2
.L12:
	.word	4129
.LFE5:
	.size	icrc1, .-icrc1
	.bss
	.align	1
icrctb.0:
	.space	512
	.align	1
init.1:
	.space	2
rchr.2:
	.space	256
	.data
	.type	it.3, %object
	.size	it.3, 16
it.3:
	.byte	0
	.byte	8
	.byte	4
	.byte	12
	.byte	2
	.byte	10
	.byte	6
	.byte	14
	.byte	1
	.byte	9
	.byte	5
	.byte	13
	.byte	3
	.byte	11
	.byte	7
	.byte	15
	.text
	.align	2
	.global	icrc
	.type	icrc, %function
icrc:
.LFB7:
	.loc 1 40 0
	@ args = 4, pretend = 0, frame = 24
	@ frame_needed = 1, uses_anonymous_args = 0
	mov	ip, sp
.LCFI8:
	stmfd	sp!, {r4, fp, ip, lr, pc}
.LCFI9:
	sub	fp, ip, #4
.LCFI10:
	sub	sp, sp, #24
.LCFI11:
	str	r1, [fp, #-24]
	str	r2, [fp, #-28]
	strh	r0, [fp, #-18]	@ movhi 
	strh	r3, [fp, #-30]	@ movhi 
	.loc 1 43 0
.LBB4:
	ldrh	r3, [fp, #-18]	@ movhi
	strh	r3, [fp, #-38]	@ movhi 
	.loc 1 47 0
	ldr	r3, .L31
	ldrh	r3, [r3, #0]
	cmp	r3, #0
	beq	.L15
	.loc 1 49 0
	ldr	r2, .L31
	mov	r3, #1
	strh	r3, [r2, #0]	@ movhi 
	.loc 1 51 0
	mov	r3, #0
	strh	r3, [fp, #-36]	@ movhi 
.L16:
	ldrh	r3, [fp, #-36]
	cmp	r3, #255
	bls	.L19
	b	.L15
.L19:
	.loc 1 53 0
	ldr	r2, .L31+4
	ldrh	r3, [fp, #-36]
	mov	r3, r3, asl #1
	add	r4, r3, r2
	ldrh	r3, [fp, #-36]	@ movhi
	mov	r3, r3, asl #8
	mov	r3, r3, asl #16
	mov	r3, r3, lsr #16
	mov	r0, r3
	mov	r1, #0
	bl	icrc1
	strh	r0, [r4, #0]	@ movhi 
	.loc 1 54 0
	ldr	r0, .L31+8
	ldrh	ip, [fp, #-36]
	ldr	r2, .L31+12
	ldrh	r3, [fp, #-36]
	and	r3, r3, #15
	ldrb	r3, [r2, r3]	@ zero_extendqisi2
	mov	r2, r3, asl #4
	ldr	r1, .L31+12
	ldrh	r3, [fp, #-36]
	mov	r3, r3, lsr #4
	mov	r3, r3, asl #16
	mov	r3, r3, lsr #16
	ldrb	r3, [r1, r3]
	orr	r3, r2, r3
	strb	r3, [r0, ip]
	.loc 1 51 0
	ldrh	r3, [fp, #-36]	@ movhi
	add	r3, r3, #1
	strh	r3, [fp, #-36]	@ movhi 
	b	.L16
.L15:
	.loc 1 58 0
	ldrsh	r3, [fp, #-30]
	cmp	r3, #0
	blt	.L20
	.loc 1 60 0
	ldrb	r3, [fp, #-30]	@ zero_extendqisi2
	mov	r2, r3	@ movhi
	ldrb	r3, [fp, #-30]	@ zero_extendqisi2
	mov	r3, r3, asl #8
	orr	r3, r2, r3
	strh	r3, [fp, #-38]	@ movhi 
	b	.L21
.L20:
	.loc 1 65 0
	ldr	r3, [fp, #4]
	cmp	r3, #0
	bge	.L21
	.loc 1 67 0
	ldr	r2, .L31+8
	ldrh	r3, [fp, #-38]
	mov	r3, r3, lsr #8
	and	r3, r3, #255
	ldrb	r3, [r2, r3]	@ zero_extendqisi2
	mov	r1, r3	@ movhi
	ldr	r2, .L31+8
	ldrb	r3, [fp, #-38]	@ zero_extendqisi2
	ldrb	r3, [r2, r3]	@ zero_extendqisi2
	mov	r3, r3, asl #8
	orr	r3, r1, r3
	strh	r3, [fp, #-38]	@ movhi 
.L21:
	.loc 1 71 0
	mov	r3, #1
	strh	r3, [fp, #-36]	@ movhi 
.L23:
	ldrh	r2, [fp, #-36]
	ldr	r3, [fp, #-28]
	cmp	r2, r3
	bls	.L26
	b	.L24
.L26:
	.loc 1 74 0
	ldr	r3, [fp, #4]
	cmp	r3, #0
	bge	.L27
	.loc 1 76 0
	ldr	r0, .L31+8
	ldrh	r2, [fp, #-36]
	ldr	r3, [fp, #-24]
	add	r3, r2, r3
	ldrb	r1, [r3, #0]	@ zero_extendqisi2
	ldrh	r3, [fp, #-38]
	mov	r3, r3, lsr #8
	mov	r2, r3
	ldrb	r3, [r0, r1]
	eor	r3, r2, r3
	and	r3, r3, #255
	strh	r3, [fp, #-32]	@ movhi 
	b	.L28
.L27:
	.loc 1 80 0
	ldrh	r2, [fp, #-36]
	ldr	r3, [fp, #-24]
	add	r1, r2, r3
	ldrh	r3, [fp, #-38]
	mov	r3, r3, lsr #8
	mov	r2, r3
	ldrb	r3, [r1, #0]
	eor	r3, r2, r3
	and	r3, r3, #255
	strh	r3, [fp, #-32]	@ movhi 
.L28:
	.loc 1 82 0
	ldr	r2, .L31+4
	ldrh	r3, [fp, #-32]
	mov	r3, r3, asl #1
	add	r2, r3, r2
	ldrb	r3, [fp, #-38]	@ zero_extendqisi2
	mov	r3, r3, asl #8
	ldrh	r2, [r2, #0]	@ movhi
	eor	r3, r2, r3
	strh	r3, [fp, #-38]	@ movhi 
	.loc 1 71 0
	ldrh	r3, [fp, #-36]	@ movhi
	add	r3, r3, #1
	strh	r3, [fp, #-36]	@ movhi 
	b	.L23
.L24:
	.loc 1 85 0
	ldr	r3, [fp, #4]
	cmp	r3, #0
	blt	.L29
	.loc 1 87 0
	ldrh	r3, [fp, #-38]	@ movhi
	strh	r3, [fp, #-34]	@ movhi 
	b	.L30
.L29:
	.loc 1 91 0
	ldr	r2, .L31+8
	ldrh	r3, [fp, #-38]
	mov	r3, r3, lsr #8
	and	r3, r3, #255
	ldrb	r3, [r2, r3]	@ zero_extendqisi2
	mov	r1, r3	@ movhi
	ldr	r2, .L31+8
	ldrb	r3, [fp, #-38]	@ zero_extendqisi2
	ldrb	r3, [r2, r3]	@ zero_extendqisi2
	mov	r3, r3, asl #8
	orr	r3, r1, r3
	strh	r3, [fp, #-34]	@ movhi 
.L30:
	.loc 1 94 0
	ldrh	r3, [fp, #-34]
	.loc 1 95 0
.LBE4:
	mov	r0, r3
	ldmea	fp, {r4, fp, sp, pc}
.L32:
	.align	2
.L31:
	.word	init.1
	.word	icrctb.0
	.word	rchr.2
	.word	it.3
.LFE7:
	.size	icrc, .-icrc
	.section	.debug_frame,"",%progbits
.Lframe0:
	.4byte	.LECIE0-.LSCIE0
.LSCIE0:
	.4byte	0xffffffff
	.byte	0x1
	.ascii	"\000"
	.uleb128 0x1
	.sleb128 -4
	.byte	0xe
	.byte	0xc
	.uleb128 0xd
	.uleb128 0x0
	.align	2
.LECIE0:
.LSFDE0:
	.4byte	.LEFDE0-.LASFDE0
.LASFDE0:
	.4byte	.Lframe0
	.4byte	.LFB3
	.4byte	.LFE3-.LFB3
	.byte	0x4
	.4byte	.LCFI0-.LFB3
	.byte	0xd
	.uleb128 0xc
	.byte	0x4
	.4byte	.LCFI1-.LCFI0
	.byte	0x8e
	.uleb128 0x2
	.byte	0x8d
	.uleb128 0x3
	.byte	0x8b
	.uleb128 0x4
	.byte	0x4
	.4byte	.LCFI2-.LCFI1
	.byte	0xc
	.uleb128 0xb
	.uleb128 0x4
	.align	2
.LEFDE0:
.LSFDE2:
	.4byte	.LEFDE2-.LASFDE2
.LASFDE2:
	.4byte	.Lframe0
	.4byte	.LFB5
	.4byte	.LFE5-.LFB5
	.byte	0x4
	.4byte	.LCFI4-.LFB5
	.byte	0xd
	.uleb128 0xc
	.byte	0x4
	.4byte	.LCFI5-.LCFI4
	.byte	0x8e
	.uleb128 0x2
	.byte	0x8d
	.uleb128 0x3
	.byte	0x8b
	.uleb128 0x4
	.byte	0x4
	.4byte	.LCFI6-.LCFI5
	.byte	0xc
	.uleb128 0xb
	.uleb128 0x4
	.align	2
.LEFDE2:
.LSFDE4:
	.4byte	.LEFDE4-.LASFDE4
.LASFDE4:
	.4byte	.Lframe0
	.4byte	.LFB7
	.4byte	.LFE7-.LFB7
	.byte	0x4
	.4byte	.LCFI8-.LFB7
	.byte	0xd
	.uleb128 0xc
	.byte	0x4
	.4byte	.LCFI9-.LCFI8
	.byte	0x8e
	.uleb128 0x2
	.byte	0x8d
	.uleb128 0x3
	.byte	0x8b
	.uleb128 0x4
	.byte	0x84
	.uleb128 0x5
	.byte	0x4
	.4byte	.LCFI10-.LCFI9
	.byte	0xc
	.uleb128 0xb
	.uleb128 0x4
	.align	2
.LEFDE4:
	.text
.Letext0: